; Function Attrs: mustprogress uwtable
define void @_ZNK3gmx19TopologyInformation9copyAtomsEv(ptr dead_on_unwind noalias writable sret(%"class.std::unique_ptr.10") align 8 %0, ptr nocapture noundef nonnull readonly align 8 dereferenceable(128) %1) local_unnamed_addr #7 align 2 personality ptr @__gxx_personality_v0 {
  %3 = alloca %struct.t_atoms, align 8
  %.val = load ptr, ptr %1, align 8
  %4 = getelementptr inbounds i8, ptr %1, i64 8
  %.val1 = load i8, ptr %4, align 8
  tail call void @llvm.experimental.noalias.scope.decl(metadata !18)
  call void @llvm.lifetime.start.p0(i64 72, ptr nonnull %3)
  %5 = tail call noalias noundef nonnull dereferenceable(72) ptr @_Znwm(i64 noundef 72) #18, !noalias !18
  store ptr %5, ptr %0, align 8, !alias.scope !18
  %6 = trunc i8 %.val1 to i1
  br i1 %6, label %7, label %11

7:                                                ; preds = %2
  invoke void @_Z21gmx_mtop_global_atomsRK10gmx_mtop_t(ptr dead_on_unwind nonnull writable sret(%struct.t_atoms) align 8 %3, ptr noundef nonnull align 8 dereferenceable(768) %.val)
          to label %8 unwind label %9, !noalias !18

8:                                                ; preds = %7
  call void @llvm.memcpy.p0.p0.i64(ptr noundef nonnull align 8 dereferenceable(72) %5, ptr noundef nonnull align 8 dereferenceable(72) %3, i64 72, i1 false), !noalias !18
  br label %_ZN3gmx12_GLOBAL__N_19makeAtomsERKNS_19TopologyInformationE.exit

9:                                                ; preds = %11, %7
  %10 = landingpad { ptr, i32 }
          cleanup
  call void @_ZNSt10unique_ptrI7t_atomsN3gmx15functor_wrapperIS0_XadL_Z21done_and_delete_atomsPS0_EEEEED2Ev(ptr noundef nonnull align 8 dereferenceable(8) %0) #15
  resume { ptr, i32 } %10

11:                                               ; preds = %2
  invoke void @_Z9init_atomP7t_atoms(ptr noundef nonnull %5)
          to label %_ZN3gmx12_GLOBAL__N_19makeAtomsERKNS_19TopologyInformationE.exit unwind label %9, !noalias !18

_ZN3gmx12_GLOBAL__N_19makeAtomsERKNS_19TopologyInformationE.exit: ; preds = %8, %11
  call void @llvm.lifetime.end.p0(i64 72, ptr nonnull %3)
  ret void
}